target datalayout = "e-m:e-p270:32:32-p271:32:32-p272:64:64-i64:64-i128:128-f80:128-n8:16:32:64-S128"
target triple = "x86_64-pc-linux-gnu"

%"class.cv::MatOp" = type { ptr }
%"class.cv::MatOp_Cmp" = type { %"class.cv::MatOp" }
%"struct.cv::utils::trace::details::Region::LocationStaticStorage" = type { ptr, ptr, ptr, i32, i32 }
%"class.cv::MatExpr" = type { ptr, i32, %"class.cv::Mat", %"class.cv::Mat", %"class.cv::Mat", double, double, %"class.cv::Scalar_" }
%"class.cv::Mat" = type { i32, i32, i32, i32, ptr, ptr, ptr, ptr, ptr, ptr, %"struct.cv::MatSize", %"struct.cv::MatStep" }
%"struct.cv::MatSize" = type { ptr }
%"struct.cv::MatStep" = type { ptr, [2 x i64] }
%"class.cv::Scalar_" = type { %"class.cv::Vec" }
%"class.cv::Vec" = type { %"class.cv::Matx" }
%"class.cv::Matx" = type { [4 x double] }
%"class.cv::utils::trace::details::Region" = type <{ ptr, i32, [4 x i8] }>

@_ZN2cvL11g_MatOp_CmpE = internal global %"class.cv::MatOp_Cmp" zeroinitializer, align 8
@_ZZNK2cv7MatExpr4typeEvE26__cv_trace_location_fn1263 = internal constant %"struct.cv::utils::trace::details::Region::LocationStaticStorage" { ptr @_ZZNK2cv7MatExpr4typeEvE32__cv_trace_location_extra_fn1263, ptr @.str.28, ptr @.str.9, i32 1263, i32 1 }, align 8
@_ZZN2cvL25getGlobalMatOpInitializerEvE8instance = internal global ptr null, align 8
@_ZGVZN2cvL25getGlobalMatOpInitializerEvE8instance = internal global i64 0, align 8

; Function Attrs: mustprogress nounwind uwtable
define void @_ZN2cv5MatOpC2Ev(ptr noundef nonnull align 8 dereferenceable(8) %0) unnamed_addr #4 align 2 {
  %2 = alloca ptr, align 8
  store ptr %0, ptr %2, align 8
  %3 = load ptr, ptr %2, align 8
  store ptr getelementptr inbounds inrange(-16, 216) ({ [29 x ptr] }, ptr @_ZTVN2cv5MatOpE, i32 0, i32 0, i32 2), ptr %3, align 8
  ret void
}

; Function Attrs: mustprogress nounwind uwtable
define linkonce_odr hidden void @_ZN2cv17MatOp_InitializerC2Ev(ptr noundef nonnull align 8 dereferenceable(8) %0) unnamed_addr #4 comdat align 2 {
  %2 = alloca ptr, align 8
  store ptr %0, ptr %2, align 8
  %3 = load ptr, ptr %2, align 8
  call void @_ZN2cv5MatOpC2Ev(ptr noundef nonnull align 8 dereferenceable(8) %3)
  store ptr getelementptr inbounds inrange(-16, 216) ({ [29 x ptr] }, ptr @_ZTVN2cv17MatOp_InitializerE, i32 0, i32 0, i32 2), ptr %3, align 8
  ret void
}

; Function Attrs: mustprogress uwtable
define internal noundef ptr @_ZN2cvL25getGlobalMatOpInitializerEv() #6 personality ptr @__gxx_personality_v0 {
  %1 = alloca ptr, align 8
  %2 = alloca i32, align 4
  %3 = load atomic i8, ptr @_ZGVZN2cvL25getGlobalMatOpInitializerEvE8instance acquire, align 8
  %4 = icmp eq i8 %3, 0
  br i1 %4, label %5, label %12, !prof !6

5:                                                ; preds = %0
  %6 = call i32 @__cxa_guard_acquire(ptr @_ZGVZN2cvL25getGlobalMatOpInitializerEvE8instance) #3
  %7 = icmp ne i32 %6, 0
  br i1 %7, label %8, label %12

8:                                                ; preds = %5
  %9 = invoke noalias noundef nonnull ptr @_Znwm(i64 noundef 8) #16
          to label %10 unwind label %14

10:                                               ; preds = %8
  invoke void @_ZN2cv17MatOp_InitializerC2Ev(ptr noundef nonnull align 8 dereferenceable(8) %9)
          to label %11 unwind label %18

11:                                               ; preds = %10
  store ptr %9, ptr @_ZZN2cvL25getGlobalMatOpInitializerEvE8instance, align 8
  call void @__cxa_guard_release(ptr @_ZGVZN2cvL25getGlobalMatOpInitializerEvE8instance) #3
  br label %12

12:                                               ; preds = %11, %5, %0
  %13 = load ptr, ptr @_ZZN2cvL25getGlobalMatOpInitializerEvE8instance, align 8
  ret ptr %13

14:                                               ; preds = %8
  %15 = landingpad { ptr, i32 }
          cleanup
  %16 = extractvalue { ptr, i32 } %15, 0
  store ptr %16, ptr %1, align 8
  %17 = extractvalue { ptr, i32 } %15, 1
  store i32 %17, ptr %2, align 4
  br label %22

18:                                               ; preds = %10
  %19 = landingpad { ptr, i32 }
          cleanup
  %20 = extractvalue { ptr, i32 } %19, 0
  store ptr %20, ptr %1, align 8
  %21 = extractvalue { ptr, i32 } %19, 1
  store i32 %21, ptr %2, align 4
  call void @_ZdlPv(ptr noundef %9) #15
  br label %22

22:                                               ; preds = %18, %14
  call void @__cxa_guard_abort(ptr @_ZGVZN2cvL25getGlobalMatOpInitializerEvE8instance) #3
  br label %23

23:                                               ; preds = %22
  %24 = load ptr, ptr %1, align 8
  %25 = load i32, ptr %2, align 4
  %26 = insertvalue { ptr, i32 } poison, ptr %24, 0
  %27 = insertvalue { ptr, i32 } %26, i32 %25, 1
  resume { ptr, i32 } %27
}

; Function Attrs: mustprogress nounwind uwtable
define linkonce_odr hidden noundef i32 @_ZNK2cv3Mat8channelsEv(ptr noundef nonnull align 8 dereferenceable(96) %0) #4 comdat align 2 {
  %2 = alloca ptr, align 8
  store ptr %0, ptr %2, align 8
  %3 = load ptr, ptr %2, align 8
  %4 = getelementptr inbounds %"class.cv::Mat", ptr %3, i32 0, i32 0
  %5 = load i32, ptr %4, align 8
  %6 = and i32 %5, 4088
  %7 = ashr i32 %6, 3
  %8 = add nsw i32 %7, 1
  ret i32 %8
}

; Function Attrs: mustprogress nounwind uwtable
define internal noundef zeroext i1 @_ZN2cvL5isCmpERKNS_7MatExprE(ptr noundef nonnull align 8 dereferenceable(352) %0) #4 {
  %2 = alloca ptr, align 8
  store ptr %0, ptr %2, align 8
  %3 = load ptr, ptr %2, align 8
  %4 = getelementptr inbounds %"class.cv::MatExpr", ptr %3, i32 0, i32 0
  %5 = load ptr, ptr %4, align 8
  %6 = icmp eq ptr %5, @_ZN2cvL11g_MatOp_CmpE
  ret i1 %6
}

; Function Attrs: mustprogress nounwind uwtable
define linkonce_odr hidden noundef i32 @_ZNK2cv3Mat4typeEv(ptr noundef nonnull align 8 dereferenceable(96) %0) #4 comdat align 2 {
  %2 = alloca ptr, align 8
  store ptr %0, ptr %2, align 8
  %3 = load ptr, ptr %2, align 8
  %4 = getelementptr inbounds %"class.cv::Mat", ptr %3, i32 0, i32 0
  %5 = load i32, ptr %4, align 8
  %6 = and i32 %5, 4095
  ret i32 %6
}

; Function Attrs: mustprogress uwtable
define internal noundef zeroext i1 @_ZN2cvL13isInitializerERKNS_7MatExprE(ptr noundef nonnull align 8 dereferenceable(352) %0) #6 {
  %2 = alloca ptr, align 8
  store ptr %0, ptr %2, align 8
  %3 = load ptr, ptr %2, align 8
  %4 = getelementptr inbounds %"class.cv::MatExpr", ptr %3, i32 0, i32 0
  %5 = load ptr, ptr %4, align 8
  %6 = call noundef ptr @_ZN2cvL25getGlobalMatOpInitializerEv()
  %7 = icmp eq ptr %5, %6
  ret i1 %7
}

; Function Attrs: mustprogress uwtable
define noundef i32 @_ZNK2cv7MatExpr4typeEv(ptr noundef nonnull align 8 dereferenceable(352) %0) #6 align 2 personality ptr @__gxx_personality_v0 {
  %2 = alloca i32, align 4
  %3 = alloca ptr, align 8
  %4 = alloca %"class.cv::utils::trace::details::Region", align 8
  %5 = alloca ptr, align 8
  %6 = alloca i32, align 4
  %7 = alloca i32, align 4
  store ptr %0, ptr %3, align 8
  %8 = load ptr, ptr %3, align 8
  call void @_ZN2cv5utils5trace7details6RegionC1ERKNS3_21LocationStaticStorageE(ptr noundef nonnull align 8 dereferenceable(12) %4, ptr noundef nonnull align 8 dereferenceable(32) @_ZZNK2cv7MatExpr4typeEvE26__cv_trace_location_fn1263)
  %9 = invoke noundef zeroext i1 @_ZN2cvL13isInitializerERKNS_7MatExprE(ptr noundef nonnull align 8 dereferenceable(352) %8)
          to label %10 unwind label %15

10:                                               ; preds = %1
  br i1 %9, label %11, label %19

11:                                               ; preds = %10
  %12 = getelementptr inbounds %"class.cv::MatExpr", ptr %8, i32 0, i32 2
  %13 = invoke noundef i32 @_ZNK2cv3Mat4typeEv(ptr noundef nonnull align 8 dereferenceable(96) %12)
          to label %14 unwind label %15

14:                                               ; preds = %11
  store i32 %13, ptr %2, align 4
  store i32 1, ptr %7, align 4
  br label %44

15:                                               ; preds = %33, %22, %19, %11, %1
  %16 = landingpad { ptr, i32 }
          cleanup
  %17 = extractvalue { ptr, i32 } %16, 0
  store ptr %17, ptr %5, align 8
  %18 = extractvalue { ptr, i32 } %16, 1
  store i32 %18, ptr %6, align 4
  call void @_ZN2cv5utils5trace7details6RegionD2Ev(ptr noundef nonnull align 8 dereferenceable(12) %4) #3
  br label %46

19:                                               ; preds = %10
  %20 = invoke noundef zeroext i1 @_ZN2cvL5isCmpERKNS_7MatExprE(ptr noundef nonnull align 8 dereferenceable(352) %8)
          to label %21 unwind label %15

21:                                               ; preds = %19
  br i1 %20, label %22, label %29

22:                                               ; preds = %21
  %23 = getelementptr inbounds %"class.cv::MatExpr", ptr %8, i32 0, i32 2
  %24 = invoke noundef i32 @_ZNK2cv3Mat8channelsEv(ptr noundef nonnull align 8 dereferenceable(96) %23)
          to label %25 unwind label %15

25:                                               ; preds = %22
  %26 = sub nsw i32 %24, 1
  %27 = shl i32 %26, 3
  %28 = add nsw i32 0, %27
  store i32 %28, ptr %2, align 4
  store i32 1, ptr %7, align 4
  br label %44

29:                                               ; preds = %21
  %30 = getelementptr inbounds %"class.cv::MatExpr", ptr %8, i32 0, i32 0
  %31 = load ptr, ptr %30, align 8
  %32 = icmp ne ptr %31, null
  br i1 %32, label %33, label %41

33:                                               ; preds = %29
  %34 = getelementptr inbounds %"class.cv::MatExpr", ptr %8, i32 0, i32 0
  %35 = load ptr, ptr %34, align 8
  %36 = load ptr, ptr %35, align 8
  %37 = getelementptr inbounds ptr, ptr %36, i64 26
  %38 = load ptr, ptr %37, align 8
  %39 = invoke noundef i32 %38(ptr noundef nonnull align 8 dereferenceable(8) %35, ptr noundef nonnull align 8 dereferenceable(352) %8)
          to label %40 unwind label %15

40:                                               ; preds = %33
  br label %42

41:                                               ; preds = %29
  br label %42

42:                                               ; preds = %41, %40
  %43 = phi i32 [ %39, %40 ], [ -1, %41 ]
  store i32 %43, ptr %2, align 4
  store i32 1, ptr %7, align 4
  br label %44

44:                                               ; preds = %42, %25, %14
  call void @_ZN2cv5utils5trace7details6RegionD2Ev(ptr noundef nonnull align 8 dereferenceable(12) %4) #3
  %45 = load i32, ptr %2, align 4
  ret i32 %45

46:                                               ; preds = %15
  %47 = load ptr, ptr %5, align 8
  %48 = load i32, ptr %6, align 4
  %49 = insertvalue { ptr, i32 } poison, ptr %47, 0
  %50 = insertvalue { ptr, i32 } %49, i32 %48, 1
  resume { ptr, i32 } %50
}