; Function Attrs: mustprogress uwtable
define noundef i32 @_ZNK2cv7MatExpr4typeEv(ptr noundef nonnull align 8 dereferenceable(352) %0) local_unnamed_addr #8 align 2 personality ptr @__gxx_personality_v0 {
  %2 = alloca %"class.cv::utils::trace::details::Region", align 8
  call void @_ZN2cv5utils5trace7details6RegionC1ERKNS3_21LocationStaticStorageE(ptr noundef nonnull align 8 dereferenceable(12) %2, ptr noundef nonnull align 8 dereferenceable(32) @_ZZNK2cv7MatExpr4typeEvE26__cv_trace_location_fn1263)
  %3 = load ptr, ptr %0, align 8
  %4 = load atomic i8, ptr @_ZGVZN2cvL25getGlobalMatOpInitializerEvE8instance acquire, align 8
  %5 = icmp eq i8 %4, 0
  br i1 %5, label %6, label %13, !prof !28

6:                                                ; preds = %1
  %7 = call i32 @__cxa_guard_acquire(ptr nonnull @_ZGVZN2cvL25getGlobalMatOpInitializerEvE8instance) #21
  %.not.i.i = icmp eq i32 %7, 0
  br i1 %.not.i.i, label %13, label %8

8:                                                ; preds = %6
  %9 = invoke noalias noundef nonnull dereferenceable(8) ptr @_Znwm(i64 noundef 8) #23
          to label %10 unwind label %11

10:                                               ; preds = %8
  store ptr getelementptr inbounds inrange(-16, 216) (i8, ptr @_ZTVN2cv17MatOp_InitializerE, i64 16), ptr %9, align 8
  store ptr %9, ptr @_ZZN2cvL25getGlobalMatOpInitializerEvE8instance, align 8
  call void @__cxa_guard_release(ptr nonnull @_ZGVZN2cvL25getGlobalMatOpInitializerEvE8instance) #21
  br label %13

11:                                               ; preds = %8
  %12 = landingpad { ptr, i32 }
          cleanup
  call void @__cxa_guard_abort(ptr nonnull @_ZGVZN2cvL25getGlobalMatOpInitializerEvE8instance) #21
  br label %.body

13:                                               ; preds = %10, %6, %1
  %14 = load ptr, ptr @_ZZN2cvL25getGlobalMatOpInitializerEvE8instance, align 8
  %15 = icmp eq ptr %3, %14
  br i1 %15, label %16, label %22

16:                                               ; preds = %13
  %17 = getelementptr inbounds i8, ptr %0, i64 16
  %18 = load i32, ptr %17, align 8
  %19 = and i32 %18, 4095
  br label %34

20:                                               ; preds = %29
  %21 = landingpad { ptr, i32 }
          cleanup
  br label %.body

.body:                                            ; preds = %11, %20
  %eh.lpad-body = phi { ptr, i32 } [ %21, %20 ], [ %12, %11 ]
  call void @_ZN2cv5utils5trace7details6RegionD2Ev(ptr noundef nonnull align 8 dereferenceable(12) %2) #21
  resume { ptr, i32 } %eh.lpad-body

22:                                               ; preds = %13
  %.val = load ptr, ptr %0, align 8
  %23 = icmp eq ptr %.val, @_ZN2cvL11g_MatOp_CmpE
  br i1 %23, label %24, label %28

24:                                               ; preds = %22
  %25 = getelementptr inbounds i8, ptr %0, i64 16
  %26 = load i32, ptr %25, align 8
  %27 = and i32 %26, 4088
  br label %34

28:                                               ; preds = %22
  %.not = icmp eq ptr %.val, null
  br i1 %.not, label %34, label %29

29:                                               ; preds = %28
  %30 = load ptr, ptr %.val, align 8
  %31 = getelementptr inbounds i8, ptr %30, i64 208
  %32 = load ptr, ptr %31, align 8
  %33 = invoke noundef i32 %32(ptr noundef nonnull align 8 dereferenceable(8) %.val, ptr noundef nonnull align 8 dereferenceable(352) %0)
          to label %34 unwind label %20

34:                                               ; preds = %29, %28, %24, %16
  %.0 = phi i32 [ %19, %16 ], [ %27, %24 ], [ %33, %29 ], [ -1, %28 ]
  %35 = getelementptr inbounds i8, ptr %2, i64 8
  %36 = load i32, ptr %35, align 8
  %.not.i = icmp eq i32 %36, 0
  br i1 %.not.i, label %_ZN2cv5utils5trace7details6RegionD2Ev.exit, label %37

37:                                               ; preds = %34
  invoke void @_ZN2cv5utils5trace7details6Region7destroyEv(ptr noundef nonnull align 8 dereferenceable(12) %2)
          to label %_ZN2cv5utils5trace7details6RegionD2Ev.exit unwind label %38

38:                                               ; preds = %37
  %39 = landingpad { ptr, i32 }
          catch ptr null
  %40 = extractvalue { ptr, i32 } %39, 0
  call void @__clang_call_terminate(ptr %40) #20
  unreachable

_ZN2cv5utils5trace7details6RegionD2Ev.exit:       ; preds = %34, %37
  ret i32 %.0
}